target datalayout = "e-m:e-p270:32:32-p271:32:32-p272:64:64-i64:64-i128:128-f80:128-n8:16:32:64-S128"
target triple = "x86_64-pc-linux-gnu"

%struct._zval_struct = type { %union._zend_value, %union.anon.3, %union.anon.6 }
%union._zend_value = type { i64 }
%union.anon.3 = type { i32 }
%union.anon.6 = type { i32 }
%struct._zend_array = type { %struct._zend_refcounted_h, %union.anon.8, i32, %union.anon.10, i32, i32, i32, i32, i64, ptr }
%struct._zend_refcounted_h = type { i32, %union.anon.1 }
%union.anon.1 = type { i32 }
%union.anon.8 = type { i32 }
%union.anon.10 = type { ptr }
%struct.zend_get_gc_buffer = type { ptr, ptr, ptr }
%struct._pdo_stmt_t = type { ptr, ptr, [6 x i8], i16, ptr, ptr, ptr, ptr, i32, i32, %union.anon, ptr, ptr, ptr, i64, ptr, ptr, ptr, %struct._zend_object }
%union.anon = type { %struct.anon.0 }
%struct.anon.0 = type { %struct._zend_fcall_info_cache }
%struct._zend_fcall_info_cache = type { ptr, ptr, ptr, ptr, ptr }
%struct._zend_object = type { %struct._zend_refcounted_h, i32, i32, ptr, ptr, ptr, [1 x %struct._zval_struct] }
%struct._zend_class_entry = type { i8, ptr, %union.anon.7, i32, i32, i32, i32, ptr, ptr, ptr, %struct._zend_array, %struct._zend_array, %struct._zend_array, ptr, ptr, ptr, ptr, ptr, ptr, ptr, ptr, ptr, ptr, ptr, ptr, ptr, ptr, ptr, ptr, ptr, ptr, ptr, %union.anon.11, ptr, ptr, ptr, ptr, i32, i32, i32, i32, %union.anon.12, ptr, ptr, ptr, ptr, i32, ptr, ptr, %union.anon.13 }
%union.anon.7 = type { ptr }
%union.anon.11 = type { ptr }
%union.anon.12 = type { ptr }
%union.anon.13 = type { %struct.anon.14 }
%struct.anon.14 = type { ptr, i32, i32 }
%struct.anon = type { ptr, ptr }

; Function Attrs: alwaysinline nounwind uwtable
define internal i32 @zval_gc_flags(i32 noundef %0) #3 {
  %2 = alloca i32, align 4
  store i32 %0, ptr %2, align 4, !tbaa !26
  %3 = load i32, ptr %2, align 4, !tbaa !26
  %4 = lshr i32 %3, 0
  %5 = and i32 %4, 1008
  ret i32 %5
}

; Function Attrs: alwaysinline nounwind uwtable
define internal void @zend_get_gc_buffer_use(ptr noundef %0, ptr noundef %1, ptr noundef %2) #3 {
  %4 = alloca ptr, align 8
  %5 = alloca ptr, align 8
  %6 = alloca ptr, align 8
  store ptr %0, ptr %4, align 8, !tbaa !133
  store ptr %1, ptr %5, align 8, !tbaa !106
  store ptr %2, ptr %6, align 8, !tbaa !194
  %7 = load ptr, ptr %4, align 8, !tbaa !133
  %8 = getelementptr inbounds nuw %struct.zend_get_gc_buffer, ptr %7, i32 0, i32 2
  %9 = load ptr, ptr %8, align 8, !tbaa !220
  %10 = load ptr, ptr %5, align 8, !tbaa !106
  store ptr %9, ptr %10, align 8, !tbaa !47
  %11 = load ptr, ptr %4, align 8, !tbaa !133
  %12 = getelementptr inbounds nuw %struct.zend_get_gc_buffer, ptr %11, i32 0, i32 0
  %13 = load ptr, ptr %12, align 8, !tbaa !218
  %14 = load ptr, ptr %4, align 8, !tbaa !133
  %15 = getelementptr inbounds nuw %struct.zend_get_gc_buffer, ptr %14, i32 0, i32 2
  %16 = load ptr, ptr %15, align 8, !tbaa !220
  %17 = ptrtoint ptr %13 to i64
  %18 = ptrtoint ptr %16 to i64
  %19 = sub i64 %17, %18
  %20 = sdiv exact i64 %19, 16
  %21 = trunc i64 %20 to i32
  %22 = load ptr, ptr %6, align 8, !tbaa !194
  store i32 %21, ptr %22, align 4, !tbaa !26
  ret void
}

; Function Attrs: alwaysinline nounwind uwtable
define internal void @zend_get_gc_buffer_add_ht(ptr noundef %0, ptr noundef %1) #3 {
  %3 = alloca ptr, align 8
  %4 = alloca ptr, align 8
  %5 = alloca ptr, align 8
  %6 = alloca ptr, align 8
  store ptr %0, ptr %3, align 8, !tbaa !133
  store ptr %1, ptr %4, align 8, !tbaa !46
  %7 = load ptr, ptr %4, align 8, !tbaa !46
  %8 = getelementptr inbounds nuw %struct._zend_array, ptr %7, i32 0, i32 0
  %9 = getelementptr inbounds nuw %struct._zend_refcounted_h, ptr %8, i32 0, i32 1
  %10 = load i32, ptr %9, align 4, !tbaa !45
  %11 = call i32 @zval_gc_flags(i32 noundef %10)
  %12 = and i32 %11, 64
  %13 = icmp ne i32 %12, 0
  br i1 %13, label %14, label %15

14:                                               ; preds = %2
  br label %47

15:                                               ; preds = %2
  %16 = load ptr, ptr %3, align 8, !tbaa !133
  %17 = getelementptr inbounds nuw %struct.zend_get_gc_buffer, ptr %16, i32 0, i32 0
  %18 = load ptr, ptr %17, align 8, !tbaa !218
  %19 = load ptr, ptr %3, align 8, !tbaa !133
  %20 = getelementptr inbounds nuw %struct.zend_get_gc_buffer, ptr %19, i32 0, i32 1
  %21 = load ptr, ptr %20, align 8, !tbaa !219
  %22 = icmp eq ptr %18, %21
  %23 = xor i1 %22, true
  %24 = xor i1 %23, true
  %25 = zext i1 %24 to i32
  %26 = sext i32 %25 to i64
  %27 = call i64 @llvm.expect.i64(i64 %26, i64 0)
  %28 = icmp ne i64 %27, 0
  br i1 %28, label %29, label %31

29:                                               ; preds = %15
  %30 = load ptr, ptr %3, align 8, !tbaa !133
  call void @zend_get_gc_buffer_grow(ptr noundef %30)
  br label %31

31:                                               ; preds = %29, %15
  br label %32

32:                                               ; preds = %31
  call void @llvm.lifetime.start.p0(i64 8, ptr %5) #14
  %33 = load ptr, ptr %4, align 8, !tbaa !46
  store ptr %33, ptr %5, align 8, !tbaa !46
  call void @llvm.lifetime.start.p0(i64 8, ptr %6) #14
  %34 = load ptr, ptr %3, align 8, !tbaa !133
  %35 = getelementptr inbounds nuw %struct.zend_get_gc_buffer, ptr %34, i32 0, i32 0
  %36 = load ptr, ptr %35, align 8, !tbaa !218
  store ptr %36, ptr %6, align 8, !tbaa !47
  %37 = load ptr, ptr %5, align 8, !tbaa !46
  %38 = load ptr, ptr %6, align 8, !tbaa !47
  %39 = getelementptr inbounds nuw %struct._zval_struct, ptr %38, i32 0, i32 0
  store ptr %37, ptr %39, align 8, !tbaa !45
  %40 = load ptr, ptr %6, align 8, !tbaa !47
  %41 = getelementptr inbounds nuw %struct._zval_struct, ptr %40, i32 0, i32 1
  store i32 775, ptr %41, align 8, !tbaa !45
  call void @llvm.lifetime.end.p0(i64 8, ptr %6) #14
  call void @llvm.lifetime.end.p0(i64 8, ptr %5) #14
  br label %42

42:                                               ; preds = %32
  %43 = load ptr, ptr %3, align 8, !tbaa !133
  %44 = getelementptr inbounds nuw %struct.zend_get_gc_buffer, ptr %43, i32 0, i32 0
  %45 = load ptr, ptr %44, align 8, !tbaa !218
  %46 = getelementptr inbounds nuw %struct._zval_struct, ptr %45, i32 1
  store ptr %46, ptr %44, align 8, !tbaa !218
  br label %47

47:                                               ; preds = %42, %14
  ret void
}

; Function Attrs: alwaysinline nounwind uwtable
define internal void @zend_get_gc_buffer_add_obj(ptr noundef %0, ptr noundef %1) #3 {
  %3 = alloca ptr, align 8
  %4 = alloca ptr, align 8
  %5 = alloca ptr, align 8
  store ptr %0, ptr %3, align 8, !tbaa !133
  store ptr %1, ptr %4, align 8, !tbaa !108
  %6 = load ptr, ptr %4, align 8, !tbaa !108
  %7 = icmp ne ptr %6, null
  call void @llvm.assume(i1 %7)
  %8 = load ptr, ptr %3, align 8, !tbaa !133
  %9 = getelementptr inbounds nuw %struct.zend_get_gc_buffer, ptr %8, i32 0, i32 0
  %10 = load ptr, ptr %9, align 8, !tbaa !218
  %11 = load ptr, ptr %3, align 8, !tbaa !133
  %12 = getelementptr inbounds nuw %struct.zend_get_gc_buffer, ptr %11, i32 0, i32 1
  %13 = load ptr, ptr %12, align 8, !tbaa !219
  %14 = icmp eq ptr %10, %13
  %15 = xor i1 %14, true
  %16 = xor i1 %15, true
  %17 = zext i1 %16 to i32
  %18 = sext i32 %17 to i64
  %19 = call i64 @llvm.expect.i64(i64 %18, i64 0)
  %20 = icmp ne i64 %19, 0
  br i1 %20, label %21, label %23

21:                                               ; preds = %2
  %22 = load ptr, ptr %3, align 8, !tbaa !133
  call void @zend_get_gc_buffer_grow(ptr noundef %22)
  br label %23

23:                                               ; preds = %21, %2
  br label %24

24:                                               ; preds = %23
  call void @llvm.lifetime.start.p0(i64 8, ptr %5) #14
  %25 = load ptr, ptr %3, align 8, !tbaa !133
  %26 = getelementptr inbounds nuw %struct.zend_get_gc_buffer, ptr %25, i32 0, i32 0
  %27 = load ptr, ptr %26, align 8, !tbaa !218
  store ptr %27, ptr %5, align 8, !tbaa !47
  %28 = load ptr, ptr %4, align 8, !tbaa !108
  %29 = load ptr, ptr %5, align 8, !tbaa !47
  %30 = getelementptr inbounds nuw %struct._zval_struct, ptr %29, i32 0, i32 0
  store ptr %28, ptr %30, align 8, !tbaa !45
  %31 = load ptr, ptr %5, align 8, !tbaa !47
  %32 = getelementptr inbounds nuw %struct._zval_struct, ptr %31, i32 0, i32 1
  store i32 776, ptr %32, align 8, !tbaa !45
  call void @llvm.lifetime.end.p0(i64 8, ptr %5) #14
  br label %33

33:                                               ; preds = %24
  %34 = load ptr, ptr %3, align 8, !tbaa !133
  %35 = getelementptr inbounds nuw %struct.zend_get_gc_buffer, ptr %34, i32 0, i32 0
  %36 = load ptr, ptr %35, align 8, !tbaa !218
  %37 = getelementptr inbounds nuw %struct._zval_struct, ptr %36, i32 1
  store ptr %37, ptr %35, align 8, !tbaa !218
  ret void
}

; Function Attrs: inlinehint nounwind uwtable
define internal ptr @php_pdo_stmt_fetch_object(ptr noundef %0) #7 {
  %2 = alloca ptr, align 8
  store ptr %0, ptr %2, align 8, !tbaa !108
  %3 = load ptr, ptr %2, align 8, !tbaa !108
  %4 = getelementptr inbounds i8, ptr %3, i64 -160
  ret ptr %4
}

; Function Attrs: nounwind uwtable
define internal ptr @dbstmt_get_gc(ptr noundef %0, ptr noundef %1, ptr noundef %2) #0 {
  %4 = alloca ptr, align 8
  %5 = alloca ptr, align 8
  %6 = alloca ptr, align 8
  %7 = alloca ptr, align 8
  %8 = alloca ptr, align 8
  %9 = alloca i32, align 4
  %10 = alloca ptr, align 8
  %11 = alloca i32, align 4
  store ptr %0, ptr %5, align 8, !tbaa !108
  store ptr %1, ptr %6, align 8, !tbaa !106
  store ptr %2, ptr %7, align 8, !tbaa !194
  call void @llvm.lifetime.start.p0(i64 8, ptr %8) #14
  %12 = load ptr, ptr %5, align 8, !tbaa !108
  %13 = call ptr @php_pdo_stmt_fetch_object(ptr noundef %12)
  store ptr %13, ptr %8, align 8, !tbaa !4
  call void @llvm.lifetime.start.p0(i64 4, ptr %9) #14
  %14 = load ptr, ptr %8, align 8, !tbaa !4
  %15 = getelementptr inbounds nuw %struct._pdo_stmt_t, ptr %14, i32 0, i32 9
  %16 = load i32, ptr %15, align 4, !tbaa !118
  %17 = and i32 %16, 15
  store i32 %17, ptr %9, align 4, !tbaa !26
  call void @llvm.lifetime.start.p0(i64 8, ptr %10) #14
  %18 = call ptr @zend_get_gc_buffer_create()
  store ptr %18, ptr %10, align 8, !tbaa !133
  %19 = load ptr, ptr %8, align 8, !tbaa !4
  %20 = getelementptr inbounds nuw %struct._pdo_stmt_t, ptr %19, i32 0, i32 13
  %21 = load ptr, ptr %20, align 8, !tbaa !162
  %22 = icmp ne ptr %21, null
  br i1 %22, label %23, label %28

23:                                               ; preds = %3
  %24 = load ptr, ptr %10, align 8, !tbaa !133
  %25 = load ptr, ptr %8, align 8, !tbaa !4
  %26 = getelementptr inbounds nuw %struct._pdo_stmt_t, ptr %25, i32 0, i32 13
  %27 = load ptr, ptr %26, align 8, !tbaa !162
  call void @zend_get_gc_buffer_add_obj(ptr noundef %24, ptr noundef %27)
  br label %28

28:                                               ; preds = %23, %3
  %29 = load i32, ptr %9, align 4, !tbaa !26
  %30 = icmp eq i32 %29, 9
  br i1 %30, label %31, label %42

31:                                               ; preds = %28
  %32 = load ptr, ptr %8, align 8, !tbaa !4
  %33 = getelementptr inbounds nuw %struct._pdo_stmt_t, ptr %32, i32 0, i32 10
  %34 = load ptr, ptr %33, align 8, !tbaa !45
  %35 = icmp ne ptr %34, null
  br i1 %35, label %36, label %41

36:                                               ; preds = %31
  %37 = load ptr, ptr %10, align 8, !tbaa !133
  %38 = load ptr, ptr %8, align 8, !tbaa !4
  %39 = getelementptr inbounds nuw %struct._pdo_stmt_t, ptr %38, i32 0, i32 10
  %40 = load ptr, ptr %39, align 8, !tbaa !45
  call void @zend_get_gc_buffer_add_obj(ptr noundef %37, ptr noundef %40)
  br label %41

41:                                               ; preds = %36, %31
  br label %58

42:                                               ; preds = %28
  %43 = load i32, ptr %9, align 4, !tbaa !26
  %44 = icmp eq i32 %43, 8
  br i1 %44, label %45, label %57

45:                                               ; preds = %42
  %46 = load ptr, ptr %8, align 8, !tbaa !4
  %47 = getelementptr inbounds nuw %struct._pdo_stmt_t, ptr %46, i32 0, i32 10
  %48 = getelementptr inbounds nuw %struct.anon, ptr %47, i32 0, i32 0
  %49 = load ptr, ptr %48, align 8, !tbaa !45
  %50 = icmp ne ptr %49, null
  br i1 %50, label %51, label %57

51:                                               ; preds = %45
  %52 = load ptr, ptr %10, align 8, !tbaa !133
  %53 = load ptr, ptr %8, align 8, !tbaa !4
  %54 = getelementptr inbounds nuw %struct._pdo_stmt_t, ptr %53, i32 0, i32 10
  %55 = getelementptr inbounds nuw %struct.anon, ptr %54, i32 0, i32 0
  %56 = load ptr, ptr %55, align 8, !tbaa !45
  call void @zend_get_gc_buffer_add_ht(ptr noundef %52, ptr noundef %56)
  br label %57

57:                                               ; preds = %51, %45, %42
  br label %58

58:                                               ; preds = %57, %41
  %59 = load ptr, ptr %10, align 8, !tbaa !133
  %60 = load ptr, ptr %6, align 8, !tbaa !106
  %61 = load ptr, ptr %7, align 8, !tbaa !194
  call void @zend_get_gc_buffer_use(ptr noundef %59, ptr noundef %60, ptr noundef %61)
  %62 = load ptr, ptr %5, align 8, !tbaa !108
  %63 = getelementptr inbounds nuw %struct._zend_object, ptr %62, i32 0, i32 5
  %64 = load ptr, ptr %63, align 8, !tbaa !127
  %65 = icmp eq ptr %64, null
  br i1 %65, label %66, label %74

66:                                               ; preds = %58
  %67 = load ptr, ptr %5, align 8, !tbaa !108
  %68 = getelementptr inbounds nuw %struct._zend_object, ptr %67, i32 0, i32 3
  %69 = load ptr, ptr %68, align 8, !tbaa !56
  %70 = getelementptr inbounds nuw %struct._zend_class_entry, ptr %69, i32 0, i32 5
  %71 = load i32, ptr %70, align 8, !tbaa !196
  %72 = icmp sle i32 %71, 1
  br i1 %72, label %73, label %74

73:                                               ; preds = %66
  store ptr null, ptr %4, align 8
  store i32 1, ptr %11, align 4
  br label %77

74:                                               ; preds = %66, %58
  %75 = load ptr, ptr %5, align 8, !tbaa !108
  %76 = call ptr @zend_std_get_properties(ptr noundef %75)
  store ptr %76, ptr %4, align 8
  store i32 1, ptr %11, align 4
  br label %77

77:                                               ; preds = %74, %73
  call void @llvm.lifetime.end.p0(i64 8, ptr %10) #14
  call void @llvm.lifetime.end.p0(i64 4, ptr %9) #14
  call void @llvm.lifetime.end.p0(i64 8, ptr %8) #14
  %78 = load ptr, ptr %4, align 8
  ret ptr %78
}