; Function Attrs: nounwind uwtable
define internal ptr @dbstmt_get_gc(ptr noundef %0, ptr noundef writeonly captures(none) initializes((0, 8)) %1, ptr noundef writeonly captures(none) initializes((0, 4)) %2) #0 {
  %4 = getelementptr inbounds i8, ptr %0, i64 -100
  %5 = load i32, ptr %4, align 4, !tbaa !107
  %6 = and i32 %5, 15
  %7 = tail call ptr @zend_get_gc_buffer_create() #17
  %8 = getelementptr inbounds i8, ptr %0, i64 -40
  %9 = load ptr, ptr %8, align 8, !tbaa !149
  %.not = icmp eq ptr %9, null
  br i1 %.not, label %20, label %10

10:                                               ; preds = %3
  %11 = load ptr, ptr %7, align 8, !tbaa !180
  %12 = getelementptr inbounds nuw i8, ptr %7, i64 8
  %13 = load ptr, ptr %12, align 8, !tbaa !181
  %14 = icmp eq ptr %11, %13
  br i1 %14, label %15, label %zend_get_gc_buffer_add_obj.exit, !prof !43

15:                                               ; preds = %10
  tail call void @zend_get_gc_buffer_grow(ptr noundef nonnull %7) #17
  %.pre = load ptr, ptr %7, align 8, !tbaa !180
  br label %zend_get_gc_buffer_add_obj.exit

zend_get_gc_buffer_add_obj.exit:                  ; preds = %10, %15
  %16 = phi ptr [ %11, %10 ], [ %.pre, %15 ]
  store ptr %9, ptr %16, align 8, !tbaa !37
  %17 = getelementptr inbounds nuw i8, ptr %16, i64 8
  store i32 776, ptr %17, align 8, !tbaa !37
  %18 = load ptr, ptr %7, align 8, !tbaa !180
  %19 = getelementptr inbounds nuw i8, ptr %18, i64 16
  store ptr %19, ptr %7, align 8, !tbaa !180
  br label %20

20:                                               ; preds = %zend_get_gc_buffer_add_obj.exit, %3
  switch i32 %6, label %zend_get_gc_buffer_add_ht.exit [
    i32 9, label %21
    i32 8, label %31
  ]

21:                                               ; preds = %20
  %22 = getelementptr inbounds i8, ptr %0, i64 -96
  %23 = load ptr, ptr %22, align 8, !tbaa !37
  %.not24 = icmp eq ptr %23, null
  br i1 %.not24, label %zend_get_gc_buffer_add_ht.exit, label %24

24:                                               ; preds = %21
  %25 = load ptr, ptr %7, align 8, !tbaa !180
  %26 = getelementptr inbounds nuw i8, ptr %7, i64 8
  %27 = load ptr, ptr %26, align 8, !tbaa !181
  %28 = icmp eq ptr %25, %27
  br i1 %28, label %29, label %zend_get_gc_buffer_add_obj.exit25, !prof !43

29:                                               ; preds = %24
  tail call void @zend_get_gc_buffer_grow(ptr noundef nonnull %7) #17
  %.pre27 = load ptr, ptr %7, align 8, !tbaa !180
  br label %zend_get_gc_buffer_add_obj.exit25

zend_get_gc_buffer_add_obj.exit25:                ; preds = %24, %29
  %30 = phi ptr [ %25, %24 ], [ %.pre27, %29 ]
  store ptr %23, ptr %30, align 8, !tbaa !37
  br label %zend_get_gc_buffer_add_ht.exit.sink.split

31:                                               ; preds = %20
  %32 = getelementptr inbounds i8, ptr %0, i64 -96
  %33 = load ptr, ptr %32, align 8, !tbaa !37
  %.not23 = icmp eq ptr %33, null
  br i1 %.not23, label %zend_get_gc_buffer_add_ht.exit, label %34

34:                                               ; preds = %31
  %35 = getelementptr inbounds nuw i8, ptr %33, i64 4
  %36 = load i32, ptr %35, align 4, !tbaa !37
  %37 = and i32 %36, 64
  %.not.i = icmp eq i32 %37, 0
  br i1 %.not.i, label %38, label %zend_get_gc_buffer_add_ht.exit

38:                                               ; preds = %34
  %39 = load ptr, ptr %7, align 8, !tbaa !180
  %40 = getelementptr inbounds nuw i8, ptr %7, i64 8
  %41 = load ptr, ptr %40, align 8, !tbaa !181
  %42 = icmp eq ptr %39, %41
  br i1 %42, label %43, label %44, !prof !43

43:                                               ; preds = %38
  tail call void @zend_get_gc_buffer_grow(ptr noundef nonnull %7) #17
  %.pre26 = load ptr, ptr %7, align 8, !tbaa !180
  br label %44

44:                                               ; preds = %43, %38
  %45 = phi ptr [ %.pre26, %43 ], [ %39, %38 ]
  store ptr %33, ptr %45, align 8, !tbaa !37
  br label %zend_get_gc_buffer_add_ht.exit.sink.split

zend_get_gc_buffer_add_ht.exit.sink.split:        ; preds = %zend_get_gc_buffer_add_obj.exit25, %44
  %.sink30 = phi ptr [ %45, %44 ], [ %30, %zend_get_gc_buffer_add_obj.exit25 ]
  %.sink = phi i32 [ 775, %44 ], [ 776, %zend_get_gc_buffer_add_obj.exit25 ]
  %46 = getelementptr inbounds nuw i8, ptr %.sink30, i64 8
  store i32 %.sink, ptr %46, align 8, !tbaa !37
  %47 = load ptr, ptr %7, align 8, !tbaa !180
  %48 = getelementptr inbounds nuw i8, ptr %47, i64 16
  store ptr %48, ptr %7, align 8, !tbaa !180
  br label %zend_get_gc_buffer_add_ht.exit

zend_get_gc_buffer_add_ht.exit:                   ; preds = %zend_get_gc_buffer_add_ht.exit.sink.split, %34, %20, %31, %21
  %49 = getelementptr inbounds nuw i8, ptr %7, i64 16
  %50 = load ptr, ptr %49, align 8, !tbaa !182
  store ptr %50, ptr %1, align 8, !tbaa !145
  %51 = load ptr, ptr %7, align 8, !tbaa !180
  %52 = ptrtoint ptr %51 to i64
  %53 = ptrtoint ptr %50 to i64
  %54 = sub i64 %52, %53
  %55 = lshr exact i64 %54, 4
  %56 = trunc i64 %55 to i32
  store i32 %56, ptr %2, align 4, !tbaa !123
  %57 = getelementptr inbounds nuw i8, ptr %0, i64 32
  %58 = load ptr, ptr %57, align 8, !tbaa !183
  %59 = icmp eq ptr %58, null
  br i1 %59, label %60, label %66

60:                                               ; preds = %zend_get_gc_buffer_add_ht.exit
  %61 = getelementptr inbounds nuw i8, ptr %0, i64 16
  %62 = load ptr, ptr %61, align 8, !tbaa !45
  %63 = getelementptr inbounds nuw i8, ptr %62, i64 32
  %64 = load i32, ptr %63, align 8, !tbaa !110
  %65 = icmp slt i32 %64, 2
  br i1 %65, label %68, label %66

66:                                               ; preds = %60, %zend_get_gc_buffer_add_ht.exit
  %67 = tail call ptr @zend_std_get_properties(ptr noundef nonnull %0) #17
  br label %68

68:                                               ; preds = %60, %66
  %.0 = phi ptr [ %67, %66 ], [ null, %60 ]
  ret ptr %.0
}